target datalayout = "e-m:e-p270:32:32-p271:32:32-p272:64:64-i64:64-i128:128-f80:128-n8:16:32:64-S128"
target triple = "x86_64-pc-linux-gnu"

%"class.std::map" = type { %"class.std::_Rb_tree" }
%"class.std::_Rb_tree" = type { %"struct.std::_Rb_tree<std::tuple<nblib::StrongType<std::__cxx11::basic_string<char>, nblib::ParticleTypeNameParameter>, nblib::StrongType<std::__cxx11::basic_string<char>, nblib::ParticleTypeNameParameter>>, std::pair<const std::tuple<nblib::StrongType<std::__cxx11::basic_string<char>, nblib::ParticleTypeNameParameter>, nblib::StrongType<std::__cxx11::basic_string<char>, nblib::ParticleTypeNameParameter>>, std::tuple<nblib::StrongType<float, nblib::C6Parameter>, nblib::StrongType<float, nblib::C12Parameter>>>, std::_Select1st<std::pair<const std::tuple<nblib::StrongType<std::__cxx11::basic_string<char>, nblib::ParticleTypeNameParameter>, nblib::StrongType<std::__cxx11::basic_string<char>, nblib::ParticleTypeNameParameter>>, std::tuple<nblib::StrongType<float, nblib::C6Parameter>, nblib::StrongType<float, nblib::C12Parameter>>>>, std::less<std::tuple<nblib::StrongType<std::__cxx11::basic_string<char>, nblib::ParticleTypeNameParameter>, nblib::StrongType<std::__cxx11::basic_string<char>, nblib::ParticleTypeNameParameter>>>>::_Rb_tree_impl" }
%"struct.std::_Rb_tree<std::tuple<nblib::StrongType<std::__cxx11::basic_string<char>, nblib::ParticleTypeNameParameter>, nblib::StrongType<std::__cxx11::basic_string<char>, nblib::ParticleTypeNameParameter>>, std::pair<const std::tuple<nblib::StrongType<std::__cxx11::basic_string<char>, nblib::ParticleTypeNameParameter>, nblib::StrongType<std::__cxx11::basic_string<char>, nblib::ParticleTypeNameParameter>>, std::tuple<nblib::StrongType<float, nblib::C6Parameter>, nblib::StrongType<float, nblib::C12Parameter>>>, std::_Select1st<std::pair<const std::tuple<nblib::StrongType<std::__cxx11::basic_string<char>, nblib::ParticleTypeNameParameter>, nblib::StrongType<std::__cxx11::basic_string<char>, nblib::ParticleTypeNameParameter>>, std::tuple<nblib::StrongType<float, nblib::C6Parameter>, nblib::StrongType<float, nblib::C12Parameter>>>>, std::less<std::tuple<nblib::StrongType<std::__cxx11::basic_string<char>, nblib::ParticleTypeNameParameter>, nblib::StrongType<std::__cxx11::basic_string<char>, nblib::ParticleTypeNameParameter>>>>::_Rb_tree_impl" = type { [8 x i8], %"struct.std::_Rb_tree_header" }
%"struct.std::_Rb_tree_header" = type { %"struct.std::_Rb_tree_node_base", i64 }
%"struct.std::_Rb_tree_node_base" = type { i32, ptr, ptr, ptr }
%"class.nblib::ParticleTypesInteractions" = type { i32, %"class.std::map.19", %"class.std::map" }
%"class.std::map.19" = type { %"class.std::_Rb_tree.20" }
%"class.std::_Rb_tree.20" = type { %"struct.std::_Rb_tree<nblib::StrongType<std::__cxx11::basic_string<char>, nblib::ParticleTypeNameParameter>, std::pair<const nblib::StrongType<std::__cxx11::basic_string<char>, nblib::ParticleTypeNameParameter>, std::tuple<nblib::StrongType<float, nblib::C6Parameter>, nblib::StrongType<float, nblib::C12Parameter>>>, std::_Select1st<std::pair<const nblib::StrongType<std::__cxx11::basic_string<char>, nblib::ParticleTypeNameParameter>, std::tuple<nblib::StrongType<float, nblib::C6Parameter>, nblib::StrongType<float, nblib::C12Parameter>>>>, std::less<nblib::StrongType<std::__cxx11::basic_string<char>, nblib::ParticleTypeNameParameter>>>::_Rb_tree_impl" }
%"struct.std::_Rb_tree<nblib::StrongType<std::__cxx11::basic_string<char>, nblib::ParticleTypeNameParameter>, std::pair<const nblib::StrongType<std::__cxx11::basic_string<char>, nblib::ParticleTypeNameParameter>, std::tuple<nblib::StrongType<float, nblib::C6Parameter>, nblib::StrongType<float, nblib::C12Parameter>>>, std::_Select1st<std::pair<const nblib::StrongType<std::__cxx11::basic_string<char>, nblib::ParticleTypeNameParameter>, std::tuple<nblib::StrongType<float, nblib::C6Parameter>, nblib::StrongType<float, nblib::C12Parameter>>>>, std::less<nblib::StrongType<std::__cxx11::basic_string<char>, nblib::ParticleTypeNameParameter>>>::_Rb_tree_impl" = type { [8 x i8], %"struct.std::_Rb_tree_header" }

; Function Attrs: mustprogress nounwind uwtable
define linkonce_odr void @_ZNSt15__new_allocatorISt13_Rb_tree_nodeISt4pairIKSt5tupleIJN5nblib10StrongTypeINSt7__cxx1112basic_stringIcSt11char_traitsIcESaIcEEENS3_25ParticleTypeNameParameterEEESC_EES2_IJNS4_IfNS3_11C6ParameterEEENS4_IfNS3_12C12ParameterEEEEEEEEC2Ev(ptr noundef nonnull align 1 dereferenceable(1) %0) unnamed_addr #1 comdat align 2 {
  %2 = alloca ptr, align 8
  store ptr %0, ptr %2, align 8, !tbaa !117
  ret void
}

; Function Attrs: noinline noreturn nounwind uwtable
define linkonce_odr hidden void @__clang_call_terminate(ptr noundef %0) #7 comdat {
  %2 = call ptr @__cxa_begin_catch(ptr %0) #15
  call void @_ZSt9terminatev() #17
  unreachable
}

; Function Attrs: mustprogress nounwind uwtable
define linkonce_odr void @_ZNSt15_Rb_tree_header8_M_resetEv(ptr noundef nonnull align 8 dereferenceable(40) %0) #1 comdat align 2 {
  %2 = alloca ptr, align 8
  store ptr %0, ptr %2, align 8, !tbaa !170
  %3 = load ptr, ptr %2, align 8
  %4 = getelementptr inbounds nuw %"struct.std::_Rb_tree_header", ptr %3, i32 0, i32 0
  %5 = getelementptr inbounds nuw %"struct.std::_Rb_tree_node_base", ptr %4, i32 0, i32 1
  store ptr null, ptr %5, align 8, !tbaa !40
  %6 = getelementptr inbounds nuw %"struct.std::_Rb_tree_header", ptr %3, i32 0, i32 0
  %7 = getelementptr inbounds nuw %"struct.std::_Rb_tree_header", ptr %3, i32 0, i32 0
  %8 = getelementptr inbounds nuw %"struct.std::_Rb_tree_node_base", ptr %7, i32 0, i32 2
  store ptr %6, ptr %8, align 8, !tbaa !141
  %9 = getelementptr inbounds nuw %"struct.std::_Rb_tree_header", ptr %3, i32 0, i32 0
  %10 = getelementptr inbounds nuw %"struct.std::_Rb_tree_header", ptr %3, i32 0, i32 0
  %11 = getelementptr inbounds nuw %"struct.std::_Rb_tree_node_base", ptr %10, i32 0, i32 3
  store ptr %9, ptr %11, align 8, !tbaa !175
  %12 = getelementptr inbounds nuw %"struct.std::_Rb_tree_header", ptr %3, i32 0, i32 1
  store i64 0, ptr %12, align 8, !tbaa !131
  ret void
}

; Function Attrs: mustprogress nounwind uwtable
define linkonce_odr void @_ZNSt15__new_allocatorISt13_Rb_tree_nodeISt4pairIKN5nblib10StrongTypeINSt7__cxx1112basic_stringIcSt11char_traitsIcESaIcEEENS2_25ParticleTypeNameParameterEEESt5tupleIJNS3_IfNS2_11C6ParameterEEENS3_IfNS2_12C12ParameterEEEEEEEEC2Ev(ptr noundef nonnull align 1 dereferenceable(1) %0) unnamed_addr #1 comdat align 2 {
  %2 = alloca ptr, align 8
  store ptr %0, ptr %2, align 8, !tbaa !173
  ret void
}

; Function Attrs: mustprogress nounwind uwtable
define linkonce_odr void @_ZNSt20_Rb_tree_key_compareISt4lessISt5tupleIJN5nblib10StrongTypeINSt7__cxx1112basic_stringIcSt11char_traitsIcESaIcEEENS2_25ParticleTypeNameParameterEEESB_EEEEC2Ev(ptr noundef nonnull align 1 dereferenceable(1) %0) unnamed_addr #1 comdat align 2 {
  %2 = alloca ptr, align 8
  store ptr %0, ptr %2, align 8, !tbaa !178
  ret void
}

; Function Attrs: mustprogress nounwind uwtable
define linkonce_odr void @_ZNSaISt13_Rb_tree_nodeISt4pairIKSt5tupleIJN5nblib10StrongTypeINSt7__cxx1112basic_stringIcSt11char_traitsIcESaIcEEENS2_25ParticleTypeNameParameterEEESB_EES1_IJNS3_IfNS2_11C6ParameterEEENS3_IfNS2_12C12ParameterEEEEEEEEC2Ev(ptr noundef nonnull align 1 dereferenceable(1) %0) unnamed_addr #1 comdat align 2 {
  %2 = alloca ptr, align 8
  store ptr %0, ptr %2, align 8, !tbaa !115
  %3 = load ptr, ptr %2, align 8
  call void @_ZNSt15__new_allocatorISt13_Rb_tree_nodeISt4pairIKSt5tupleIJN5nblib10StrongTypeINSt7__cxx1112basic_stringIcSt11char_traitsIcESaIcEEENS3_25ParticleTypeNameParameterEEESC_EES2_IJNS4_IfNS3_11C6ParameterEEENS4_IfNS3_12C12ParameterEEEEEEEEC2Ev(ptr noundef nonnull align 1 dereferenceable(1) %3) #15
  ret void
}

; Function Attrs: mustprogress nounwind uwtable
define linkonce_odr void @_ZNSt15_Rb_tree_headerC2Ev(ptr noundef nonnull align 8 dereferenceable(40) %0) unnamed_addr #1 comdat align 2 personality ptr @__gxx_personality_v0 {
  %2 = alloca ptr, align 8
  store ptr %0, ptr %2, align 8, !tbaa !170
  %3 = load ptr, ptr %2, align 8
  %4 = getelementptr inbounds nuw %"struct.std::_Rb_tree_header", ptr %3, i32 0, i32 0
  %5 = getelementptr inbounds nuw %"struct.std::_Rb_tree_node_base", ptr %4, i32 0, i32 0
  store i32 0, ptr %5, align 8, !tbaa !172
  invoke void @_ZNSt15_Rb_tree_header8_M_resetEv(ptr noundef nonnull align 8 dereferenceable(40) %3)
          to label %6 unwind label %7

6:                                                ; preds = %1
  ret void

7:                                                ; preds = %1
  %8 = landingpad { ptr, i32 }
          catch ptr null
  %9 = extractvalue { ptr, i32 } %8, 0
  call void @__clang_call_terminate(ptr %9) #17
  unreachable
}

; Function Attrs: mustprogress nounwind uwtable
define linkonce_odr void @_ZNSt20_Rb_tree_key_compareISt4lessIN5nblib10StrongTypeINSt7__cxx1112basic_stringIcSt11char_traitsIcESaIcEEENS1_25ParticleTypeNameParameterEEEEEC2Ev(ptr noundef nonnull align 1 dereferenceable(1) %0) unnamed_addr #1 comdat align 2 {
  %2 = alloca ptr, align 8
  store ptr %0, ptr %2, align 8, !tbaa !168
  ret void
}

; Function Attrs: mustprogress nounwind uwtable
define linkonce_odr void @_ZNSaISt13_Rb_tree_nodeISt4pairIKN5nblib10StrongTypeINSt7__cxx1112basic_stringIcSt11char_traitsIcESaIcEEENS1_25ParticleTypeNameParameterEEESt5tupleIJNS2_IfNS1_11C6ParameterEEENS2_IfNS1_12C12ParameterEEEEEEEEC2Ev(ptr noundef nonnull align 1 dereferenceable(1) %0) unnamed_addr #1 comdat align 2 {
  %2 = alloca ptr, align 8
  store ptr %0, ptr %2, align 8, !tbaa !166
  %3 = load ptr, ptr %2, align 8
  call void @_ZNSt15__new_allocatorISt13_Rb_tree_nodeISt4pairIKN5nblib10StrongTypeINSt7__cxx1112basic_stringIcSt11char_traitsIcESaIcEEENS2_25ParticleTypeNameParameterEEESt5tupleIJNS3_IfNS2_11C6ParameterEEENS3_IfNS2_12C12ParameterEEEEEEEEC2Ev(ptr noundef nonnull align 1 dereferenceable(1) %3) #15
  ret void
}

; Function Attrs: mustprogress nounwind uwtable
define linkonce_odr void @_ZNSt8_Rb_treeISt5tupleIJN5nblib10StrongTypeINSt7__cxx1112basic_stringIcSt11char_traitsIcESaIcEEENS1_25ParticleTypeNameParameterEEESA_EESt4pairIKSB_S0_IJNS2_IfNS1_11C6ParameterEEENS2_IfNS1_12C12ParameterEEEEEESt10_Select1stISJ_ESt4lessISB_ESaISJ_EE13_Rb_tree_implISN_Lb1EEC2Ev(ptr noundef nonnull align 8 dereferenceable(48) %0) unnamed_addr #1 comdat align 2 {
  %2 = alloca ptr, align 8
  store ptr %0, ptr %2, align 8, !tbaa !176
  %3 = load ptr, ptr %2, align 8
  call void @_ZNSaISt13_Rb_tree_nodeISt4pairIKSt5tupleIJN5nblib10StrongTypeINSt7__cxx1112basic_stringIcSt11char_traitsIcESaIcEEENS2_25ParticleTypeNameParameterEEESB_EES1_IJNS3_IfNS2_11C6ParameterEEENS3_IfNS2_12C12ParameterEEEEEEEEC2Ev(ptr noundef nonnull align 1 dereferenceable(1) %3) #15
  call void @_ZNSt20_Rb_tree_key_compareISt4lessISt5tupleIJN5nblib10StrongTypeINSt7__cxx1112basic_stringIcSt11char_traitsIcESaIcEEENS2_25ParticleTypeNameParameterEEESB_EEEEC2Ev(ptr noundef nonnull align 1 dereferenceable(1) %3) #15
  %4 = getelementptr inbounds i8, ptr %3, i64 8
  call void @_ZNSt15_Rb_tree_headerC2Ev(ptr noundef nonnull align 8 dereferenceable(40) %4) #15
  ret void
}

; Function Attrs: mustprogress nounwind uwtable
define linkonce_odr void @_ZNSt8_Rb_treeIN5nblib10StrongTypeINSt7__cxx1112basic_stringIcSt11char_traitsIcESaIcEEENS0_25ParticleTypeNameParameterEEESt4pairIKS9_St5tupleIJNS1_IfNS0_11C6ParameterEEENS1_IfNS0_12C12ParameterEEEEEESt10_Select1stISI_ESt4lessIS9_ESaISI_EE13_Rb_tree_implISM_Lb1EEC2Ev(ptr noundef nonnull align 8 dereferenceable(48) %0) unnamed_addr #1 comdat align 2 {
  %2 = alloca ptr, align 8
  store ptr %0, ptr %2, align 8, !tbaa !164
  %3 = load ptr, ptr %2, align 8
  call void @_ZNSaISt13_Rb_tree_nodeISt4pairIKN5nblib10StrongTypeINSt7__cxx1112basic_stringIcSt11char_traitsIcESaIcEEENS1_25ParticleTypeNameParameterEEESt5tupleIJNS2_IfNS1_11C6ParameterEEENS2_IfNS1_12C12ParameterEEEEEEEEC2Ev(ptr noundef nonnull align 1 dereferenceable(1) %3) #15
  call void @_ZNSt20_Rb_tree_key_compareISt4lessIN5nblib10StrongTypeINSt7__cxx1112basic_stringIcSt11char_traitsIcESaIcEEENS1_25ParticleTypeNameParameterEEEEEC2Ev(ptr noundef nonnull align 1 dereferenceable(1) %3) #15
  %4 = getelementptr inbounds i8, ptr %3, i64 8
  call void @_ZNSt15_Rb_tree_headerC2Ev(ptr noundef nonnull align 8 dereferenceable(40) %4) #15
  ret void
}

; Function Attrs: mustprogress nounwind uwtable
define linkonce_odr void @_ZNSt8_Rb_treeISt5tupleIJN5nblib10StrongTypeINSt7__cxx1112basic_stringIcSt11char_traitsIcESaIcEEENS1_25ParticleTypeNameParameterEEESA_EESt4pairIKSB_S0_IJNS2_IfNS1_11C6ParameterEEENS2_IfNS1_12C12ParameterEEEEEESt10_Select1stISJ_ESt4lessISB_ESaISJ_EEC2Ev(ptr noundef nonnull align 8 dereferenceable(48) %0) unnamed_addr #1 comdat align 2 {
  %2 = alloca ptr, align 8
  store ptr %0, ptr %2, align 8, !tbaa !33
  %3 = load ptr, ptr %2, align 8
  %4 = getelementptr inbounds nuw %"class.std::_Rb_tree", ptr %3, i32 0, i32 0
  call void @_ZNSt8_Rb_treeISt5tupleIJN5nblib10StrongTypeINSt7__cxx1112basic_stringIcSt11char_traitsIcESaIcEEENS1_25ParticleTypeNameParameterEEESA_EESt4pairIKSB_S0_IJNS2_IfNS1_11C6ParameterEEENS2_IfNS1_12C12ParameterEEEEEESt10_Select1stISJ_ESt4lessISB_ESaISJ_EE13_Rb_tree_implISN_Lb1EEC2Ev(ptr noundef nonnull align 8 dereferenceable(48) %4) #15
  ret void
}

; Function Attrs: mustprogress nounwind uwtable
define linkonce_odr void @_ZNSt8_Rb_treeIN5nblib10StrongTypeINSt7__cxx1112basic_stringIcSt11char_traitsIcESaIcEEENS0_25ParticleTypeNameParameterEEESt4pairIKS9_St5tupleIJNS1_IfNS0_11C6ParameterEEENS1_IfNS0_12C12ParameterEEEEEESt10_Select1stISI_ESt4lessIS9_ESaISI_EEC2Ev(ptr noundef nonnull align 8 dereferenceable(48) %0) unnamed_addr #1 comdat align 2 {
  %2 = alloca ptr, align 8
  store ptr %0, ptr %2, align 8, !tbaa !162
  %3 = load ptr, ptr %2, align 8
  %4 = getelementptr inbounds nuw %"class.std::_Rb_tree.20", ptr %3, i32 0, i32 0
  call void @_ZNSt8_Rb_treeIN5nblib10StrongTypeINSt7__cxx1112basic_stringIcSt11char_traitsIcESaIcEEENS0_25ParticleTypeNameParameterEEESt4pairIKS9_St5tupleIJNS1_IfNS0_11C6ParameterEEENS1_IfNS0_12C12ParameterEEEEEESt10_Select1stISI_ESt4lessIS9_ESaISI_EE13_Rb_tree_implISM_Lb1EEC2Ev(ptr noundef nonnull align 8 dereferenceable(48) %4) #15
  ret void
}

; Function Attrs: mustprogress nounwind uwtable
define linkonce_odr void @_ZNSt3mapISt5tupleIJN5nblib10StrongTypeINSt7__cxx1112basic_stringIcSt11char_traitsIcESaIcEEENS1_25ParticleTypeNameParameterEEESA_EES0_IJNS2_IfNS1_11C6ParameterEEENS2_IfNS1_12C12ParameterEEEEESt4lessISB_ESaISt4pairIKSB_SG_EEEC2Ev(ptr noundef nonnull align 8 dereferenceable(48) %0) unnamed_addr #1 comdat align 2 {
  %2 = alloca ptr, align 8
  store ptr %0, ptr %2, align 8, !tbaa !16
  %3 = load ptr, ptr %2, align 8
  %4 = getelementptr inbounds nuw %"class.std::map", ptr %3, i32 0, i32 0
  call void @_ZNSt8_Rb_treeISt5tupleIJN5nblib10StrongTypeINSt7__cxx1112basic_stringIcSt11char_traitsIcESaIcEEENS1_25ParticleTypeNameParameterEEESA_EESt4pairIKSB_S0_IJNS2_IfNS1_11C6ParameterEEENS2_IfNS1_12C12ParameterEEEEEESt10_Select1stISJ_ESt4lessISB_ESaISJ_EEC2Ev(ptr noundef nonnull align 8 dereferenceable(48) %4) #15
  ret void
}

; Function Attrs: mustprogress nounwind uwtable
define linkonce_odr void @_ZNSt3mapIN5nblib10StrongTypeINSt7__cxx1112basic_stringIcSt11char_traitsIcESaIcEEENS0_25ParticleTypeNameParameterEEESt5tupleIJNS1_IfNS0_11C6ParameterEEENS1_IfNS0_12C12ParameterEEEEESt4lessIS9_ESaISt4pairIKS9_SF_EEEC2Ev(ptr noundef nonnull align 8 dereferenceable(48) %0) unnamed_addr #1 comdat align 2 {
  %2 = alloca ptr, align 8
  store ptr %0, ptr %2, align 8, !tbaa !160
  %3 = load ptr, ptr %2, align 8
  %4 = getelementptr inbounds nuw %"class.std::map.19", ptr %3, i32 0, i32 0
  call void @_ZNSt8_Rb_treeIN5nblib10StrongTypeINSt7__cxx1112basic_stringIcSt11char_traitsIcESaIcEEENS0_25ParticleTypeNameParameterEEESt4pairIKS9_St5tupleIJNS1_IfNS0_11C6ParameterEEENS1_IfNS0_12C12ParameterEEEEEESt10_Select1stISI_ESt4lessIS9_ESaISI_EEC2Ev(ptr noundef nonnull align 8 dereferenceable(48) %4) #15
  ret void
}

; Function Attrs: mustprogress nounwind uwtable
define void @_ZN5nblib25ParticleTypesInteractionsC2ENS_15CombinationRuleE(ptr noundef nonnull align 8 dereferenceable(104) %0, i32 noundef %1) unnamed_addr #1 align 2 {
  %3 = alloca ptr, align 8
  %4 = alloca i32, align 4
  store ptr %0, ptr %3, align 8, !tbaa !144
  store i32 %1, ptr %4, align 4, !tbaa !146
  %5 = load ptr, ptr %3, align 8
  %6 = getelementptr inbounds nuw %"class.nblib::ParticleTypesInteractions", ptr %5, i32 0, i32 0
  %7 = load i32, ptr %4, align 4, !tbaa !146
  store i32 %7, ptr %6, align 8, !tbaa !148
  %8 = getelementptr inbounds nuw %"class.nblib::ParticleTypesInteractions", ptr %5, i32 0, i32 1
  call void @_ZNSt3mapIN5nblib10StrongTypeINSt7__cxx1112basic_stringIcSt11char_traitsIcESaIcEEENS0_25ParticleTypeNameParameterEEESt5tupleIJNS1_IfNS0_11C6ParameterEEENS1_IfNS0_12C12ParameterEEEEESt4lessIS9_ESaISt4pairIKS9_SF_EEEC2Ev(ptr noundef nonnull align 8 dereferenceable(48) %8) #15
  %9 = getelementptr inbounds nuw %"class.nblib::ParticleTypesInteractions", ptr %5, i32 0, i32 2
  call void @_ZNSt3mapISt5tupleIJN5nblib10StrongTypeINSt7__cxx1112basic_stringIcSt11char_traitsIcESaIcEEENS1_25ParticleTypeNameParameterEEESA_EES0_IJNS2_IfNS1_11C6ParameterEEENS2_IfNS1_12C12ParameterEEEEESt4lessISB_ESaISt4pairIKSB_SG_EEEC2Ev(ptr noundef nonnull align 8 dereferenceable(48) %9) #15
  ret void
}