; Function Attrs: mustprogress nofree norecurse nosync nounwind willreturn memory(argmem: write) uwtable
define void @_ZN5nblib25ParticleTypesInteractionsC2ENS_15CombinationRuleE(ptr noundef nonnull align 8 dereferenceable(104) initializes((0, 4), (16, 20), (24, 32)) %0, i32 noundef %1) unnamed_addr #15 align 2 personality ptr @__gxx_personality_v0 {
  store i32 %1, ptr %0, align 8, !tbaa !48
  %3 = getelementptr inbounds nuw i8, ptr %0, i64 16
  store i32 0, ptr %3, align 8, !tbaa !61
  %4 = getelementptr inbounds nuw i8, ptr %0, i64 24
  store ptr null, ptr %4, align 8, !tbaa !16
  %5 = getelementptr inbounds nuw i8, ptr %0, i64 32
  store ptr %3, ptr %5, align 8, !tbaa !47
  %6 = getelementptr inbounds nuw i8, ptr %0, i64 40
  store ptr %3, ptr %6, align 8, !tbaa !62
  %7 = getelementptr inbounds nuw i8, ptr %0, i64 48
  store i64 0, ptr %7, align 8, !tbaa !44
  %8 = getelementptr inbounds nuw i8, ptr %0, i64 64
  store i32 0, ptr %8, align 8, !tbaa !61
  %9 = getelementptr inbounds nuw i8, ptr %0, i64 72
  store ptr null, ptr %9, align 8, !tbaa !16
  %10 = getelementptr inbounds nuw i8, ptr %0, i64 80
  store ptr %8, ptr %10, align 8, !tbaa !47
  %11 = getelementptr inbounds nuw i8, ptr %0, i64 88
  store ptr %8, ptr %11, align 8, !tbaa !62
  %12 = getelementptr inbounds nuw i8, ptr %0, i64 96
  store i64 0, ptr %12, align 8, !tbaa !44
  ret void
}